target datalayout = "e-m:e-p270:32:32-p271:32:32-p272:64:64-i64:64-i128:128-f80:128-n8:16:32:64-S128"
target triple = "x86_64-pc-linux-gnu"

%struct.Gia_Man_t_ = type { ptr, ptr, i32, i32, i32, i32, ptr, ptr, i32, i32, i32, ptr, ptr, %struct.Vec_Int_t_, %struct.Vec_Int_t_, i32, i32, i32, %struct.Vec_Int_t_, ptr, ptr, ptr, i32, i32, i32, i32, ptr, ptr, ptr, ptr, ptr, i32, i32, ptr, i32, ptr, ptr, ptr, ptr, ptr, ptr, ptr, ptr, ptr, ptr, ptr, ptr, ptr, ptr, ptr, ptr, ptr, ptr, %struct.Vec_Int_t_, %struct.Vec_Int_t_, ptr, ptr, ptr, ptr, ptr, ptr, ptr, ptr, ptr, ptr, ptr, ptr, ptr, ptr, ptr, ptr, ptr, ptr, ptr, ptr, ptr, i32, float, float, ptr, ptr, i32, ptr, ptr, ptr, ptr, ptr, ptr, ptr, ptr, ptr, ptr, ptr, ptr, ptr, ptr, ptr, i64, i64, ptr, ptr, i32, i32, i32, i32, i32, i32, i32, i32, i32, i32, i32, i32, ptr, ptr, ptr, ptr, ptr, ptr, ptr, ptr, i32, i32, i32, ptr, i32, i32, ptr, ptr, ptr, ptr, ptr, ptr, i32, i32, ptr, %struct.Vec_Int_t_, %struct.Vec_Int_t_, %struct.Vec_Int_t_, ptr, ptr, ptr }
%struct.Vec_Int_t_ = type { i32, i32, ptr }
%struct.satoko_opts = type { i64, i64, double, double, i32, i32, i32, i32, i32, i32, i32, float, double, float, i32, i64, i32, i32, float, i8, i8 }
%struct.Bmc_AndPar_t_ = type { i32, i32, i32, i32, i32, i32, i32, i32, i32, i32, i32, i32, i32, i32, i32, i32, i32, i32, i32, ptr }
%struct.Bmcs_Man_t_ = type { ptr, ptr, ptr, ptr, %struct.Vec_Ptr_t_, %struct.Vec_Int_t_, %struct.Vec_Int_t_, [100 x ptr], i32, i32, i32, i64, i64, i64, i64 }
%struct.Vec_Ptr_t_ = type { i32, i32, ptr }

; Function Attrs: nounwind uwtable
define internal i32 @Vec_IntSize(ptr noundef %0) #0 {
  %2 = alloca ptr, align 8
  store ptr %0, ptr %2, align 8
  %3 = load ptr, ptr %2, align 8
  %4 = getelementptr inbounds %struct.Vec_Int_t_, ptr %3, i32 0, i32 1
  %5 = load i32, ptr %4, align 4
  ret i32 %5
}

; Function Attrs: nounwind uwtable
define internal void @Vec_IntPush(ptr noundef %0, i32 noundef %1) #0 {
  %3 = alloca ptr, align 8
  %4 = alloca i32, align 4
  store ptr %0, ptr %3, align 8
  store i32 %1, ptr %4, align 4
  %5 = load ptr, ptr %3, align 8
  %6 = getelementptr inbounds %struct.Vec_Int_t_, ptr %5, i32 0, i32 1
  %7 = load i32, ptr %6, align 4
  %8 = load ptr, ptr %3, align 8
  %9 = getelementptr inbounds %struct.Vec_Int_t_, ptr %8, i32 0, i32 0
  %10 = load i32, ptr %9, align 8
  %11 = icmp eq i32 %7, %10
  br i1 %11, label %12, label %26

12:                                               ; preds = %2
  %13 = load ptr, ptr %3, align 8
  %14 = getelementptr inbounds %struct.Vec_Int_t_, ptr %13, i32 0, i32 0
  %15 = load i32, ptr %14, align 8
  %16 = icmp slt i32 %15, 16
  br i1 %16, label %17, label %19

17:                                               ; preds = %12
  %18 = load ptr, ptr %3, align 8
  call void @Vec_IntGrow(ptr noundef %18, i32 noundef 16)
  br label %25

19:                                               ; preds = %12
  %20 = load ptr, ptr %3, align 8
  %21 = load ptr, ptr %3, align 8
  %22 = getelementptr inbounds %struct.Vec_Int_t_, ptr %21, i32 0, i32 0
  %23 = load i32, ptr %22, align 8
  %24 = mul nsw i32 2, %23
  call void @Vec_IntGrow(ptr noundef %20, i32 noundef %24)
  br label %25

25:                                               ; preds = %19, %17
  br label %26

26:                                               ; preds = %25, %2
  %27 = load i32, ptr %4, align 4
  %28 = load ptr, ptr %3, align 8
  %29 = getelementptr inbounds %struct.Vec_Int_t_, ptr %28, i32 0, i32 2
  %30 = load ptr, ptr %29, align 8
  %31 = load ptr, ptr %3, align 8
  %32 = getelementptr inbounds %struct.Vec_Int_t_, ptr %31, i32 0, i32 1
  %33 = load i32, ptr %32, align 4
  %34 = add nsw i32 %33, 1
  store i32 %34, ptr %32, align 4
  %35 = sext i32 %33 to i64
  %36 = getelementptr inbounds i32, ptr %30, i64 %35
  store i32 %27, ptr %36, align 4
  ret void
}

; Function Attrs: nounwind uwtable
define internal void @Vec_IntGrow(ptr noundef %0, i32 noundef %1) #0 {
  %3 = alloca ptr, align 8
  %4 = alloca i32, align 4
  store ptr %0, ptr %3, align 8
  store i32 %1, ptr %4, align 4
  %5 = load ptr, ptr %3, align 8
  %6 = getelementptr inbounds %struct.Vec_Int_t_, ptr %5, i32 0, i32 0
  %7 = load i32, ptr %6, align 8
  %8 = load i32, ptr %4, align 4
  %9 = icmp sge i32 %7, %8
  br i1 %9, label %10, label %11

10:                                               ; preds = %2
  br label %36

11:                                               ; preds = %2
  %12 = load ptr, ptr %3, align 8
  %13 = getelementptr inbounds %struct.Vec_Int_t_, ptr %12, i32 0, i32 2
  %14 = load ptr, ptr %13, align 8
  %15 = icmp ne ptr %14, null
  br i1 %15, label %16, label %24

16:                                               ; preds = %11
  %17 = load ptr, ptr %3, align 8
  %18 = getelementptr inbounds %struct.Vec_Int_t_, ptr %17, i32 0, i32 2
  %19 = load ptr, ptr %18, align 8
  %20 = load i32, ptr %4, align 4
  %21 = sext i32 %20 to i64
  %22 = mul i64 4, %21
  %23 = call ptr @realloc(ptr noundef %19, i64 noundef %22) #16
  br label %29

24:                                               ; preds = %11
  %25 = load i32, ptr %4, align 4
  %26 = sext i32 %25 to i64
  %27 = mul i64 4, %26
  %28 = call noalias ptr @malloc(i64 noundef %27) #12
  br label %29

29:                                               ; preds = %24, %16
  %30 = phi ptr [ %23, %16 ], [ %28, %24 ]
  %31 = load ptr, ptr %3, align 8
  %32 = getelementptr inbounds %struct.Vec_Int_t_, ptr %31, i32 0, i32 2
  store ptr %30, ptr %32, align 8
  %33 = load i32, ptr %4, align 4
  %34 = load ptr, ptr %3, align 8
  %35 = getelementptr inbounds %struct.Vec_Int_t_, ptr %34, i32 0, i32 0
  store i32 %33, ptr %35, align 8
  br label %36

36:                                               ; preds = %29, %10
  ret void
}

; Function Attrs: nounwind uwtable
define internal i32 @Gia_ManCiNum(ptr noundef %0) #0 {
  %2 = alloca ptr, align 8
  store ptr %0, ptr %2, align 8
  %3 = load ptr, ptr %2, align 8
  %4 = getelementptr inbounds %struct.Gia_Man_t_, ptr %3, i32 0, i32 11
  %5 = load ptr, ptr %4, align 8
  %6 = call i32 @Vec_IntSize(ptr noundef %5)
  ret i32 %6
}

; Function Attrs: nounwind uwtable
define internal void @Vec_PtrGrow(ptr noundef %0, i32 noundef %1) #0 {
  %3 = alloca ptr, align 8
  %4 = alloca i32, align 4
  store ptr %0, ptr %3, align 8
  store i32 %1, ptr %4, align 4
  %5 = load ptr, ptr %3, align 8
  %6 = getelementptr inbounds %struct.Vec_Ptr_t_, ptr %5, i32 0, i32 0
  %7 = load i32, ptr %6, align 8
  %8 = load i32, ptr %4, align 4
  %9 = icmp sge i32 %7, %8
  br i1 %9, label %10, label %11

10:                                               ; preds = %2
  br label %36

11:                                               ; preds = %2
  %12 = load ptr, ptr %3, align 8
  %13 = getelementptr inbounds %struct.Vec_Ptr_t_, ptr %12, i32 0, i32 2
  %14 = load ptr, ptr %13, align 8
  %15 = icmp ne ptr %14, null
  br i1 %15, label %16, label %24

16:                                               ; preds = %11
  %17 = load ptr, ptr %3, align 8
  %18 = getelementptr inbounds %struct.Vec_Ptr_t_, ptr %17, i32 0, i32 2
  %19 = load ptr, ptr %18, align 8
  %20 = load i32, ptr %4, align 4
  %21 = sext i32 %20 to i64
  %22 = mul i64 8, %21
  %23 = call ptr @realloc(ptr noundef %19, i64 noundef %22) #16
  br label %29

24:                                               ; preds = %11
  %25 = load i32, ptr %4, align 4
  %26 = sext i32 %25 to i64
  %27 = mul i64 8, %26
  %28 = call noalias ptr @malloc(i64 noundef %27) #12
  br label %29

29:                                               ; preds = %24, %16
  %30 = phi ptr [ %23, %16 ], [ %28, %24 ]
  %31 = load ptr, ptr %3, align 8
  %32 = getelementptr inbounds %struct.Vec_Ptr_t_, ptr %31, i32 0, i32 2
  store ptr %30, ptr %32, align 8
  %33 = load i32, ptr %4, align 4
  %34 = load ptr, ptr %3, align 8
  %35 = getelementptr inbounds %struct.Vec_Ptr_t_, ptr %34, i32 0, i32 0
  store i32 %33, ptr %35, align 8
  br label %36

36:                                               ; preds = %29, %10
  ret void
}

; Function Attrs: nounwind uwtable
define internal i32 @Gia_ManObjNum(ptr noundef %0) #0 {
  %2 = alloca ptr, align 8
  store ptr %0, ptr %2, align 8
  %3 = load ptr, ptr %2, align 8
  %4 = getelementptr inbounds %struct.Gia_Man_t_, ptr %3, i32 0, i32 4
  %5 = load i32, ptr %4, align 8
  ret i32 %5
}

; Function Attrs: nounwind uwtable
define internal i32 @Abc_Var2Lit(i32 noundef %0, i32 noundef %1) #0 {
  %3 = alloca i32, align 4
  %4 = alloca i32, align 4
  store i32 %0, ptr %3, align 4
  store i32 %1, ptr %4, align 4
  %5 = load i32, ptr %3, align 4
  %6 = load i32, ptr %3, align 4
  %7 = add nsw i32 %5, %6
  %8 = load i32, ptr %4, align 4
  %9 = add nsw i32 %7, %8
  ret i32 %9
}

; Function Attrs: nounwind uwtable
define ptr @Bmcs_ManStart(ptr noundef %0, ptr noundef %1) #0 {
  %3 = alloca ptr, align 8
  %4 = alloca ptr, align 8
  %5 = alloca ptr, align 8
  %6 = alloca i32, align 4
  %7 = alloca i32, align 4
  %8 = alloca %struct.satoko_opts, align 8
  store ptr %0, ptr %3, align 8
  store ptr %1, ptr %4, align 8
  %9 = call noalias ptr @calloc(i64 noundef 1, i64 noundef 928) #15
  store ptr %9, ptr %5, align 8
  %10 = call i32 @Abc_Var2Lit(i32 noundef 0, i32 noundef 1)
  store i32 %10, ptr %7, align 4
  call void @satoko_default_opts(ptr noundef %8)
  %11 = load ptr, ptr %4, align 8
  %12 = getelementptr inbounds %struct.Bmc_AndPar_t_, ptr %11, i32 0, i32 3
  %13 = load i32, ptr %12, align 4
  %14 = sext i32 %13 to i64
  %15 = getelementptr inbounds %struct.satoko_opts, ptr %8, i32 0, i32 0
  store i64 %14, ptr %15, align 8
  %16 = load ptr, ptr %4, align 8
  %17 = load ptr, ptr %5, align 8
  %18 = getelementptr inbounds %struct.Bmcs_Man_t_, ptr %17, i32 0, i32 0
  store ptr %16, ptr %18, align 8
  %19 = load ptr, ptr %3, align 8
  %20 = load ptr, ptr %5, align 8
  %21 = getelementptr inbounds %struct.Bmcs_Man_t_, ptr %20, i32 0, i32 1
  store ptr %19, ptr %21, align 8
  %22 = load ptr, ptr %3, align 8
  %23 = call i32 @Gia_ManObjNum(ptr noundef %22)
  %24 = mul nsw i32 3, %23
  %25 = call ptr @Gia_ManStart(i32 noundef %24)
  %26 = load ptr, ptr %5, align 8
  %27 = getelementptr inbounds %struct.Bmcs_Man_t_, ptr %26, i32 0, i32 2
  store ptr %25, ptr %27, align 8
  %28 = load ptr, ptr %5, align 8
  %29 = getelementptr inbounds %struct.Bmcs_Man_t_, ptr %28, i32 0, i32 2
  %30 = load ptr, ptr %29, align 8
  call void @Gia_ManHashStart(ptr noundef %30)
  %31 = load ptr, ptr %5, align 8
  %32 = getelementptr inbounds %struct.Bmcs_Man_t_, ptr %31, i32 0, i32 3
  store ptr null, ptr %32, align 8
  %33 = load ptr, ptr %5, align 8
  %34 = getelementptr inbounds %struct.Bmcs_Man_t_, ptr %33, i32 0, i32 4
  call void @Vec_PtrGrow(ptr noundef %34, i32 noundef 1000)
  %35 = load ptr, ptr %5, align 8
  %36 = getelementptr inbounds %struct.Bmcs_Man_t_, ptr %35, i32 0, i32 5
  %37 = load ptr, ptr %3, align 8
  %38 = call i32 @Gia_ManCiNum(ptr noundef %37)
  %39 = mul nsw i32 3, %38
  call void @Vec_IntGrow(ptr noundef %36, i32 noundef %39)
  %40 = load ptr, ptr %5, align 8
  %41 = getelementptr inbounds %struct.Bmcs_Man_t_, ptr %40, i32 0, i32 5
  call void @Vec_IntPush(ptr noundef %41, i32 noundef 0)
  %42 = load ptr, ptr %5, align 8
  %43 = getelementptr inbounds %struct.Bmcs_Man_t_, ptr %42, i32 0, i32 6
  %44 = load ptr, ptr %3, align 8
  %45 = call i32 @Gia_ManCiNum(ptr noundef %44)
  %46 = mul nsw i32 3, %45
  call void @Vec_IntGrow(ptr noundef %43, i32 noundef %46)
  store i32 0, ptr %6, align 4
  br label %47

47:                                               ; preds = %103, %2
  %48 = load i32, ptr %6, align 4
  %49 = load ptr, ptr %4, align 8
  %50 = getelementptr inbounds %struct.Bmc_AndPar_t_, ptr %49, i32 0, i32 6
  %51 = load i32, ptr %50, align 8
  %52 = icmp slt i32 %48, %51
  br i1 %52, label %53, label %106

53:                                               ; preds = %47
  %54 = load i32, ptr %6, align 4
  %55 = sitofp i32 %54 to double
  %56 = fneg double %55
  %57 = call double @llvm.fmuladd.f64(double %56, double 5.000000e-02, double 8.000000e-01)
  %58 = getelementptr inbounds %struct.satoko_opts, ptr %8, i32 0, i32 2
  store double %57, ptr %58, align 8
  %59 = load i32, ptr %6, align 4
  %60 = sitofp i32 %59 to double
  %61 = fneg double %60
  %62 = call double @llvm.fmuladd.f64(double %61, double 5.000000e-02, double 1.400000e+00)
  %63 = getelementptr inbounds %struct.satoko_opts, ptr %8, i32 0, i32 3
  store double %62, ptr %63, align 8
  %64 = load i32, ptr %6, align 4
  %65 = sitofp i32 %64 to double
  %66 = call double @llvm.fmuladd.f64(double %65, double 5.000000e-02, double 0x3FD3333340000000)
  %67 = fptrunc double %66 to float
  %68 = getelementptr inbounds %struct.satoko_opts, ptr %8, i32 0, i32 18
  store float %67, ptr %68, align 8
  %69 = call ptr @satoko_create()
  %70 = load ptr, ptr %5, align 8
  %71 = getelementptr inbounds %struct.Bmcs_Man_t_, ptr %70, i32 0, i32 7
  %72 = load i32, ptr %6, align 4
  %73 = sext i32 %72 to i64
  %74 = getelementptr inbounds [100 x ptr], ptr %71, i64 0, i64 %73
  store ptr %69, ptr %74, align 8
  %75 = load ptr, ptr %5, align 8
  %76 = getelementptr inbounds %struct.Bmcs_Man_t_, ptr %75, i32 0, i32 7
  %77 = load i32, ptr %6, align 4
  %78 = sext i32 %77 to i64
  %79 = getelementptr inbounds [100 x ptr], ptr %76, i64 0, i64 %78
  %80 = load ptr, ptr %79, align 8
  call void @satoko_configure(ptr noundef %80, ptr noundef %8)
  %81 = load ptr, ptr %5, align 8
  %82 = getelementptr inbounds %struct.Bmcs_Man_t_, ptr %81, i32 0, i32 7
  %83 = load i32, ptr %6, align 4
  %84 = sext i32 %83 to i64
  %85 = getelementptr inbounds [100 x ptr], ptr %82, i64 0, i64 %84
  %86 = load ptr, ptr %85, align 8
  %87 = call i32 @satoko_add_variable(ptr noundef %86, i8 noundef signext 0)
  %88 = load ptr, ptr %5, align 8
  %89 = getelementptr inbounds %struct.Bmcs_Man_t_, ptr %88, i32 0, i32 7
  %90 = load i32, ptr %6, align 4
  %91 = sext i32 %90 to i64
  %92 = getelementptr inbounds [100 x ptr], ptr %89, i64 0, i64 %91
  %93 = load ptr, ptr %92, align 8
  %94 = call i32 @satoko_add_clause(ptr noundef %93, ptr noundef %7, i32 noundef 1)
  %95 = load ptr, ptr %5, align 8
  %96 = getelementptr inbounds %struct.Bmcs_Man_t_, ptr %95, i32 0, i32 7
  %97 = load i32, ptr %6, align 4
  %98 = sext i32 %97 to i64
  %99 = getelementptr inbounds [100 x ptr], ptr %96, i64 0, i64 %98
  %100 = load ptr, ptr %99, align 8
  %101 = load ptr, ptr %5, align 8
  %102 = getelementptr inbounds %struct.Bmcs_Man_t_, ptr %101, i32 0, i32 10
  call void @satoko_set_stop(ptr noundef %100, ptr noundef %102)
  br label %103

103:                                              ; preds = %53
  %104 = load i32, ptr %6, align 4
  %105 = add nsw i32 %104, 1
  store i32 %105, ptr %6, align 4
  br label %47, !llvm.loop !24

106:                                              ; preds = %47
  %107 = load ptr, ptr %5, align 8
  %108 = getelementptr inbounds %struct.Bmcs_Man_t_, ptr %107, i32 0, i32 8
  store i32 1, ptr %108, align 8
  %109 = load ptr, ptr %5, align 8
  ret ptr %109
}