; Function Attrs: nounwind uwtable
define noundef ptr @Bmcs_ManStart(ptr noundef %0, ptr noundef %1) local_unnamed_addr #0 {
Vec_PtrGrow.exit:
  %2 = alloca i32, align 4
  %3 = alloca %struct.satoko_opts, align 8
  %4 = tail call noalias dereferenceable_or_null(928) ptr @calloc(i64 noundef 1, i64 noundef 928) #25
  store i32 1, ptr %2, align 4
  call void @satoko_default_opts(ptr noundef nonnull %3) #23
  %5 = getelementptr inbounds nuw i8, ptr %1, i64 12
  %6 = load i32, ptr %5, align 4
  %7 = sext i32 %6 to i64
  store i64 %7, ptr %3, align 8
  store ptr %1, ptr %4, align 8
  %8 = getelementptr inbounds nuw i8, ptr %4, i64 8
  store ptr %0, ptr %8, align 8
  %9 = getelementptr i8, ptr %0, i64 24
  %.val = load i32, ptr %9, align 8
  %10 = mul nsw i32 %.val, 3
  %11 = call ptr @Gia_ManStart(i32 noundef %10) #23
  %12 = getelementptr inbounds nuw i8, ptr %4, i64 16
  store ptr %11, ptr %12, align 8
  call void @Gia_ManHashStart(ptr noundef %11) #23
  %13 = getelementptr inbounds nuw i8, ptr %4, i64 32
  %14 = getelementptr inbounds nuw i8, ptr %4, i64 40
  %15 = call noalias dereferenceable_or_null(8000) ptr @malloc(i64 noundef 8000) #22
  store ptr %15, ptr %14, align 8
  store i32 1000, ptr %13, align 8
  %16 = getelementptr inbounds nuw i8, ptr %4, i64 48
  %17 = getelementptr i8, ptr %0, i64 64
  %.val33 = load ptr, ptr %17, align 8
  %18 = getelementptr i8, ptr %.val33, i64 4
  %.val33.val = load i32, ptr %18, align 4
  %.not.i35 = icmp slt i32 %.val33.val, 1
  br i1 %.not.i35, label %Vec_IntGrow.exit.i, label %.Vec_IntGrow.exit10_crit_edge.i

.Vec_IntGrow.exit10_crit_edge.i:                  ; preds = %Vec_PtrGrow.exit
  %19 = mul nuw nsw i32 %.val33.val, 3
  %20 = getelementptr inbounds nuw i8, ptr %4, i64 56
  %21 = zext nneg i32 %19 to i64
  %22 = shl nuw nsw i64 %21, 2
  %23 = call noalias ptr @malloc(i64 noundef %22) #22
  store ptr %23, ptr %20, align 8
  br label %Vec_IntPush.exit

Vec_IntGrow.exit.i:                               ; preds = %Vec_PtrGrow.exit
  %24 = getelementptr inbounds nuw i8, ptr %4, i64 56
  %25 = call noalias dereferenceable_or_null(64) ptr @malloc(i64 noundef 64) #22
  store ptr %25, ptr %24, align 8
  br label %Vec_IntPush.exit

Vec_IntPush.exit:                                 ; preds = %.Vec_IntGrow.exit10_crit_edge.i, %Vec_IntGrow.exit.i
  %storemerge = phi i32 [ %19, %.Vec_IntGrow.exit10_crit_edge.i ], [ 16, %Vec_IntGrow.exit.i ]
  %26 = phi ptr [ %23, %.Vec_IntGrow.exit10_crit_edge.i ], [ %25, %Vec_IntGrow.exit.i ]
  store i32 %storemerge, ptr %16, align 8
  %27 = getelementptr inbounds nuw i8, ptr %4, i64 52
  store i32 1, ptr %27, align 4
  store i32 0, ptr %26, align 4
  %28 = getelementptr inbounds nuw i8, ptr %4, i64 64
  %.val34 = load ptr, ptr %17, align 8
  %29 = getelementptr i8, ptr %.val34, i64 4
  %.val34.val = load i32, ptr %29, align 4
  %30 = mul nsw i32 %.val34.val, 3
  %31 = load i32, ptr %28, align 8
  %.not.i37 = icmp slt i32 %31, %30
  br i1 %.not.i37, label %32, label %Vec_IntGrow.exit39

32:                                               ; preds = %Vec_IntPush.exit
  %33 = getelementptr inbounds nuw i8, ptr %4, i64 72
  %34 = load ptr, ptr %33, align 8
  %.not9.i38 = icmp eq ptr %34, null
  %35 = sext i32 %30 to i64
  %36 = shl nsw i64 %35, 2
  br i1 %.not9.i38, label %39, label %37

37:                                               ; preds = %32
  %38 = call ptr @realloc(ptr noundef nonnull %34, i64 noundef %36) #21
  br label %41

39:                                               ; preds = %32
  %40 = call noalias ptr @malloc(i64 noundef %36) #22
  br label %41

41:                                               ; preds = %39, %37
  %42 = phi ptr [ %38, %37 ], [ %40, %39 ]
  store ptr %42, ptr %33, align 8
  store i32 %30, ptr %28, align 8
  br label %Vec_IntGrow.exit39

Vec_IntGrow.exit39:                               ; preds = %Vec_IntPush.exit, %41
  %43 = getelementptr inbounds nuw i8, ptr %1, i64 24
  %44 = load i32, ptr %43, align 8
  %45 = icmp sgt i32 %44, 0
  br i1 %45, label %.lr.ph, label %._crit_edge

.lr.ph:                                           ; preds = %Vec_IntGrow.exit39
  %46 = getelementptr inbounds nuw i8, ptr %3, i64 16
  %47 = getelementptr inbounds nuw i8, ptr %3, i64 24
  %48 = getelementptr inbounds nuw i8, ptr %3, i64 96
  %49 = getelementptr inbounds nuw i8, ptr %4, i64 80
  %50 = getelementptr inbounds nuw i8, ptr %4, i64 888
  br label %51

51:                                               ; preds = %.lr.ph, %51
  %indvars.iv = phi i64 [ 0, %.lr.ph ], [ %indvars.iv.next, %51 ]
  %52 = trunc nuw nsw i64 %indvars.iv to i32
  %53 = uitofp nneg i32 %52 to double
  %54 = fneg double %53
  %55 = call double @llvm.fmuladd.f64(double %54, double 5.000000e-02, double 8.000000e-01)
  store double %55, ptr %46, align 8
  %56 = call double @llvm.fmuladd.f64(double %54, double 5.000000e-02, double 1.400000e+00)
  store double %56, ptr %47, align 8
  %57 = call double @llvm.fmuladd.f64(double %53, double 5.000000e-02, double 0x3FD3333340000000)
  %58 = fptrunc double %57 to float
  store float %58, ptr %48, align 8
  %59 = call ptr @satoko_create() #23
  %60 = getelementptr inbounds nuw [100 x ptr], ptr %49, i64 0, i64 %indvars.iv
  store ptr %59, ptr %60, align 8
  call void @satoko_configure(ptr noundef %59, ptr noundef nonnull %3) #23
  %61 = load ptr, ptr %60, align 8
  %62 = call i32 @satoko_add_variable(ptr noundef %61, i8 noundef signext 0) #23
  %63 = load ptr, ptr %60, align 8
  %64 = call i32 @satoko_add_clause(ptr noundef %63, ptr noundef nonnull %2, i32 noundef 1) #23
  %65 = load ptr, ptr %60, align 8
  call void @satoko_set_stop(ptr noundef %65, ptr noundef nonnull %50) #23
  %indvars.iv.next = add nuw nsw i64 %indvars.iv, 1
  %66 = load i32, ptr %43, align 8
  %67 = sext i32 %66 to i64
  %68 = icmp slt i64 %indvars.iv.next, %67
  br i1 %68, label %51, label %._crit_edge, !llvm.loop !24

._crit_edge:                                      ; preds = %51, %Vec_IntGrow.exit39
  %69 = getelementptr inbounds nuw i8, ptr %4, i64 880
  store i32 1, ptr %69, align 8
  ret ptr %4
}